target datalayout = "e-m:e-p270:32:32-p271:32:32-p272:64:64-i64:64-i128:128-f80:128-n8:16:32:64-S128"
target triple = "x86_64-pc-linux-gnu"

%class.QString = type { %struct.QArrayDataPointer }
%struct.QArrayDataPointer = type { ptr, ptr, i64 }
%class.QLocale = type { %class.QSharedDataPointer }
%class.QSharedDataPointer = type { ptr }
%class.QFlags.13 = type { i32 }

; Function Attrs: mustprogress nounwind uwtable
define linkonce_odr void @_ZN6QFlagsIN7QLocale14DataSizeFormatEEC2ES1_(ptr noundef nonnull align 4 dereferenceable(4) %0, i32 noundef %1) unnamed_addr #2 comdat align 2 {
  %3 = alloca ptr, align 8
  %4 = alloca i32, align 4
  store ptr %0, ptr %3, align 8
  store i32 %1, ptr %4, align 4
  %5 = load ptr, ptr %3, align 8
  %6 = getelementptr inbounds %class.QFlags.13, ptr %5, i32 0, i32 0
  %7 = load i32, ptr %4, align 4
  store i32 %7, ptr %6, align 4
  ret void
}

; Function Attrs: mustprogress uwtable
define internal void @_ZL12formatStringx(ptr dead_on_unwind noalias writable sret(%class.QString) align 8 %0, i64 noundef %1) #0 personality ptr @__gxx_personality_v0 {
  %3 = alloca ptr, align 8
  %4 = alloca i64, align 8
  %5 = alloca %class.QLocale, align 8
  %6 = alloca %class.QFlags.13, align 4
  %7 = alloca ptr, align 8
  %8 = alloca i32, align 4
  store ptr %0, ptr %3, align 8
  store i64 %1, ptr %4, align 8
  call void @_ZN7QLocaleC1Ev(ptr noundef nonnull align 8 dereferenceable(8) %5)
  %9 = load i64, ptr %4, align 8
  call void @_ZN6QFlagsIN7QLocale14DataSizeFormatEEC2ES1_(ptr noundef nonnull align 4 dereferenceable(4) %6, i32 noundef 3) #11
  %10 = getelementptr inbounds %class.QFlags.13, ptr %6, i32 0, i32 0
  %11 = load i32, ptr %10, align 4
  invoke void @_ZNK7QLocale17formattedDataSizeExi6QFlagsINS_14DataSizeFormatEE(ptr dead_on_unwind writable sret(%class.QString) align 8 %0, ptr noundef nonnull align 8 dereferenceable(8) %5, i64 noundef %9, i32 noundef 0, i32 %11)
          to label %12 unwind label %13

12:                                               ; preds = %2
  call void @_ZN7QLocaleD1Ev(ptr noundef nonnull align 8 dereferenceable(8) %5) #11
  ret void

13:                                               ; preds = %2
  %14 = landingpad { ptr, i32 }
          cleanup
  %15 = extractvalue { ptr, i32 } %14, 0
  store ptr %15, ptr %7, align 8
  %16 = extractvalue { ptr, i32 } %14, 1
  store i32 %16, ptr %8, align 4
  call void @_ZN7QLocaleD1Ev(ptr noundef nonnull align 8 dereferenceable(8) %5) #11
  br label %17

17:                                               ; preds = %13
  %18 = load ptr, ptr %7, align 8
  %19 = load i32, ptr %8, align 4
  %20 = insertvalue { ptr, i32 } poison, ptr %18, 0
  %21 = insertvalue { ptr, i32 } %20, i32 %19, 1
  resume { ptr, i32 } %21
}