; Function Attrs: mustprogress uwtable
define internal fastcc void @_ZL12formatStringx(ptr dead_on_unwind noalias writable align 8 %0, i64 noundef %1) unnamed_addr #0 personality ptr @__gxx_personality_v0 {
  %3 = alloca %class.QLocale, align 8
  call void @_ZN7QLocaleC1Ev(ptr noundef nonnull align 8 dereferenceable(8) %3)
  invoke void @_ZNK7QLocale17formattedDataSizeExi6QFlagsINS_14DataSizeFormatEE(ptr dead_on_unwind writable sret(%class.QString) align 8 %0, ptr noundef nonnull align 8 dereferenceable(8) %3, i64 noundef %1, i32 noundef 0, i32 3)
          to label %4 unwind label %5

4:                                                ; preds = %2
  call void @_ZN7QLocaleD1Ev(ptr noundef nonnull align 8 dereferenceable(8) %3) #23
  ret void

5:                                                ; preds = %2
  %6 = landingpad { ptr, i32 }
          cleanup
  call void @_ZN7QLocaleD1Ev(ptr noundef nonnull align 8 dereferenceable(8) %3) #23
  resume { ptr, i32 } %6
}